target datalayout = "e-m:e-p270:32:32-p271:32:32-p272:64:64-i64:64-i128:128-f80:128-n8:16:32:64-S128"
target triple = "x86_64-pc-linux-gnu"

@hf_nfs_fh_fsid = internal global i32 0, align 4
@hf_nfs_fh_fstype = internal global i32 0, align 4
@hf_nfs_fh_fn = internal global i32 0, align 4
@hf_nfs_fh_fn_len = internal global i32 0, align 4
@hf_nfs_fh_fn_inode = internal global i32 0, align 4
@hf_nfs_fh_fn_generation = internal global i32 0, align 4
@hf_nfs_fh_xfn = internal global i32 0, align 4
@hf_nfs_fh_xfn_len = internal global i32 0, align 4
@hf_nfs_fh_xfn_inode = internal global i32 0, align 4
@hf_nfs_fh_xfn_generation = internal global i32 0, align 4
@hf_nfs_fh_flag = internal global i32 0, align 4
@hf_nfs_fh_endianness = internal global i32 0, align 4
@ett_nfs_fh_fsid = internal global i32 0, align 4
@ett_nfs_fh_fn = internal global i32 0, align 4
@ett_nfs_fh_xfn = internal global i32 0, align 4
@dissect_fhandle_data_SVR4.fsid_fields = internal constant [3 x ptr] [ptr @hf_nfs_fh_fsid_major32, ptr @hf_nfs_fh_fsid_minor32, ptr null], align 16

; Function Attrs: null_pointer_is_valid sspstrong uwtable
define internal i32 @dissect_fhandle_data_SVR4(ptr noundef %0, ptr noundef %1, ptr noundef %2, ptr noundef %3) #0 {
  %5 = alloca ptr, align 8
  %6 = alloca ptr, align 8
  %7 = alloca ptr, align 8
  %8 = alloca ptr, align 8
  %9 = alloca i32, align 4
  %10 = alloca i8, align 1
  %11 = alloca i8, align 1
  %12 = alloca i32, align 4
  %13 = alloca i32, align 4
  %14 = alloca i32, align 4
  %15 = alloca i32, align 4
  %16 = alloca i32, align 4
  %17 = alloca i32, align 4
  %18 = alloca i32, align 4
  %19 = alloca i32, align 4
  %20 = alloca i32, align 4
  %21 = alloca i32, align 4
  %22 = alloca i32, align 4
  %23 = alloca i32, align 4
  %24 = alloca i32, align 4
  %25 = alloca i32, align 4
  %26 = alloca i32, align 4
  %27 = alloca i32, align 4
  %28 = alloca ptr, align 8
  %29 = alloca ptr, align 8
  %30 = alloca i32, align 4
  %31 = alloca i32, align 4
  %32 = alloca i32, align 4
  %33 = alloca i32, align 4
  %34 = alloca i32, align 4
  %35 = alloca i32, align 4
  %36 = alloca i32, align 4
  %37 = alloca i32, align 4
  %38 = alloca i32, align 4
  %39 = alloca i32, align 4
  %40 = alloca i32, align 4
  %41 = alloca i32, align 4
  %42 = alloca ptr, align 8
  %43 = alloca ptr, align 8
  store ptr %0, ptr %5, align 8
  store ptr %1, ptr %6, align 8
  store ptr %2, ptr %7, align 8
  store ptr %3, ptr %8, align 8
  call void @llvm.lifetime.start.p0(i64 4, ptr %9) #16
  store i32 0, ptr %9, align 4
  call void @llvm.lifetime.start.p0(i64 1, ptr %10) #16
  store i8 0, ptr %10, align 1
  call void @llvm.lifetime.start.p0(i64 1, ptr %11) #16
  store i8 0, ptr %11, align 1
  call void @llvm.lifetime.start.p0(i64 4, ptr %12) #16
  store i32 0, ptr %12, align 4
  call void @llvm.lifetime.start.p0(i64 4, ptr %13) #16
  call void @llvm.lifetime.start.p0(i64 4, ptr %14) #16
  call void @llvm.lifetime.start.p0(i64 4, ptr %15) #16
  %44 = load ptr, ptr %5, align 8
  %45 = call i32 @tvb_reported_length(ptr noundef %44)
  store i32 %45, ptr %15, align 4
  %46 = load ptr, ptr %5, align 8
  %47 = call zeroext i16 @tvb_get_letohs(ptr noundef %46, i32 noundef 8)
  %48 = zext i16 %47 to i32
  store i32 %48, ptr %13, align 4
  %49 = load ptr, ptr %5, align 8
  %50 = load i32, ptr %13, align 4
  %51 = add i32 10, %50
  %52 = call zeroext i1 @tvb_bytes_exist(ptr noundef %49, i32 noundef %51, i32 noundef 2)
  br i1 %52, label %53, label %75

53:                                               ; preds = %4
  %54 = load ptr, ptr %5, align 8
  %55 = load i32, ptr %13, align 4
  %56 = add i32 10, %55
  %57 = call zeroext i16 @tvb_get_letohs(ptr noundef %54, i32 noundef %56)
  %58 = zext i16 %57 to i32
  store i32 %58, ptr %14, align 4
  %59 = load i32, ptr %13, align 4
  %60 = add i32 12, %59
  %61 = load i32, ptr %14, align 4
  %62 = add i32 %60, %61
  %63 = load i32, ptr %15, align 4
  %64 = icmp eq i32 %62, %63
  br i1 %64, label %65, label %66

65:                                               ; preds = %53
  store i32 -2147483648, ptr %9, align 4
  store i8 0, ptr %10, align 1
  store i8 1, ptr %11, align 1
  br label %66

66:                                               ; preds = %65, %53
  %67 = load i32, ptr %13, align 4
  %68 = add i32 16, %67
  %69 = load i32, ptr %14, align 4
  %70 = add i32 %68, %69
  %71 = load i32, ptr %15, align 4
  %72 = icmp eq i32 %70, %71
  br i1 %72, label %73, label %74

73:                                               ; preds = %66
  store i32 -2147483648, ptr %9, align 4
  store i8 1, ptr %10, align 1
  store i8 1, ptr %11, align 1
  br label %74

74:                                               ; preds = %73, %66
  br label %75

75:                                               ; preds = %74, %4
  %76 = load i8, ptr %11, align 1, !range !6, !noundef !7
  %77 = trunc i8 %76 to i1
  br i1 %77, label %109, label %78

78:                                               ; preds = %75
  %79 = load ptr, ptr %5, align 8
  %80 = call zeroext i16 @tvb_get_ntohs(ptr noundef %79, i32 noundef 8)
  %81 = zext i16 %80 to i32
  store i32 %81, ptr %13, align 4
  %82 = load ptr, ptr %5, align 8
  %83 = load i32, ptr %13, align 4
  %84 = add i32 10, %83
  %85 = call zeroext i1 @tvb_bytes_exist(ptr noundef %82, i32 noundef %84, i32 noundef 2)
  br i1 %85, label %86, label %108

86:                                               ; preds = %78
  %87 = load ptr, ptr %5, align 8
  %88 = load i32, ptr %13, align 4
  %89 = add i32 10, %88
  %90 = call zeroext i16 @tvb_get_ntohs(ptr noundef %87, i32 noundef %89)
  %91 = zext i16 %90 to i32
  store i32 %91, ptr %14, align 4
  %92 = load i32, ptr %13, align 4
  %93 = add i32 12, %92
  %94 = load i32, ptr %14, align 4
  %95 = add i32 %93, %94
  %96 = load i32, ptr %15, align 4
  %97 = icmp eq i32 %95, %96
  br i1 %97, label %98, label %99

98:                                               ; preds = %86
  store i8 0, ptr %10, align 1
  br label %99

99:                                               ; preds = %98, %86
  %100 = load i32, ptr %13, align 4
  %101 = add i32 16, %100
  %102 = load i32, ptr %14, align 4
  %103 = add i32 %101, %102
  %104 = load i32, ptr %15, align 4
  %105 = icmp eq i32 %103, %104
  br i1 %105, label %106, label %107

106:                                              ; preds = %99
  store i8 1, ptr %10, align 1
  br label %107

107:                                              ; preds = %106, %99
  br label %108

108:                                              ; preds = %107, %78
  br label %109

109:                                              ; preds = %108, %75
  %110 = load ptr, ptr %7, align 8
  %111 = load i32, ptr @hf_nfs_fh_endianness, align 4
  %112 = load ptr, ptr %5, align 8
  %113 = load i32, ptr %15, align 4
  %114 = load i32, ptr %9, align 4
  %115 = icmp eq i32 %114, -2147483648
  %116 = zext i1 %115 to i32
  %117 = sext i32 %116 to i64
  %118 = call ptr @proto_tree_add_boolean(ptr noundef %110, i32 noundef %111, ptr noundef %112, i32 noundef 0, i32 noundef %113, i64 noundef %117)
  %119 = load ptr, ptr %7, align 8
  %120 = load ptr, ptr %5, align 8
  %121 = load i32, ptr %12, align 4
  %122 = load i32, ptr @hf_nfs_fh_fsid, align 4
  %123 = load i32, ptr @ett_nfs_fh_fsid, align 4
  %124 = load i32, ptr %9, align 4
  %125 = call ptr @proto_tree_add_bitmask(ptr noundef %119, ptr noundef %120, i32 noundef %121, i32 noundef %122, i32 noundef %123, ptr noundef @dissect_fhandle_data_SVR4.fsid_fields, i32 noundef %124)
  %126 = load i32, ptr %12, align 4
  %127 = add i32 %126, 4
  store i32 %127, ptr %12, align 4
  %128 = load ptr, ptr %7, align 8
  %129 = load i32, ptr @hf_nfs_fh_fstype, align 4
  %130 = load ptr, ptr %5, align 8
  %131 = load i32, ptr %12, align 4
  %132 = load i32, ptr %9, align 4
  %133 = call ptr @proto_tree_add_item(ptr noundef %128, i32 noundef %129, ptr noundef %130, i32 noundef %131, i32 noundef 4, i32 noundef %132)
  %134 = load i32, ptr %12, align 4
  %135 = add i32 %134, 4
  store i32 %135, ptr %12, align 4
  call void @llvm.lifetime.start.p0(i64 4, ptr %16) #16
  call void @llvm.lifetime.start.p0(i64 4, ptr %17) #16
  call void @llvm.lifetime.start.p0(i64 4, ptr %18) #16
  call void @llvm.lifetime.start.p0(i64 4, ptr %19) #16
  call void @llvm.lifetime.start.p0(i64 4, ptr %20) #16
  call void @llvm.lifetime.start.p0(i64 4, ptr %21) #16
  call void @llvm.lifetime.start.p0(i64 4, ptr %22) #16
  call void @llvm.lifetime.start.p0(i64 4, ptr %23) #16
  call void @llvm.lifetime.start.p0(i64 4, ptr %24) #16
  call void @llvm.lifetime.start.p0(i64 4, ptr %25) #16
  call void @llvm.lifetime.start.p0(i64 4, ptr %26) #16
  call void @llvm.lifetime.start.p0(i64 4, ptr %27) #16
  %136 = load i32, ptr %12, align 4
  store i32 %136, ptr %16, align 4
  %137 = load i32, ptr %16, align 4
  store i32 %137, ptr %17, align 4
  store i32 2, ptr %18, align 4
  %138 = load ptr, ptr %5, align 8
  %139 = load i32, ptr %17, align 4
  %140 = load i32, ptr %9, align 4
  %141 = call zeroext i16 @tvb_get_uint16(ptr noundef %138, i32 noundef %139, i32 noundef %140)
  %142 = zext i16 %141 to i32
  store i32 %142, ptr %19, align 4
  %143 = load i32, ptr %16, align 4
  %144 = load i32, ptr %18, align 4
  %145 = add i32 %143, %144
  store i32 %145, ptr %20, align 4
  %146 = load i32, ptr %20, align 4
  %147 = add i32 %146, 2
  store i32 %147, ptr %21, align 4
  store i32 4, ptr %22, align 4
  %148 = load ptr, ptr %5, align 8
  %149 = load i32, ptr %21, align 4
  %150 = load i32, ptr %9, align 4
  %151 = call i32 @tvb_get_uint32(ptr noundef %148, i32 noundef %149, i32 noundef %150)
  store i32 %151, ptr %23, align 4
  %152 = load i32, ptr %21, align 4
  %153 = load i32, ptr %22, align 4
  %154 = add i32 %152, %153
  store i32 %154, ptr %24, align 4
  store i32 4, ptr %25, align 4
  %155 = load ptr, ptr %5, align 8
  %156 = load i32, ptr %24, align 4
  %157 = load i32, ptr %9, align 4
  %158 = call i32 @tvb_get_uint32(ptr noundef %155, i32 noundef %156, i32 noundef %157)
  store i32 %158, ptr %26, align 4
  %159 = load i32, ptr %18, align 4
  %160 = load i32, ptr %19, align 4
  %161 = add i32 %159, %160
  store i32 %161, ptr %27, align 4
  %162 = load ptr, ptr %7, align 8
  %163 = icmp ne ptr %162, null
  br i1 %163, label %164, label %196

164:                                              ; preds = %109
  call void @llvm.lifetime.start.p0(i64 8, ptr %28) #16
  store ptr null, ptr %28, align 8
  call void @llvm.lifetime.start.p0(i64 8, ptr %29) #16
  store ptr null, ptr %29, align 8
  %165 = load ptr, ptr %7, align 8
  %166 = load i32, ptr @hf_nfs_fh_fn, align 4
  %167 = load ptr, ptr %5, align 8
  %168 = load i32, ptr %16, align 4
  %169 = load i32, ptr %27, align 4
  %170 = load i32, ptr %23, align 4
  %171 = call ptr @proto_tree_add_uint(ptr noundef %165, i32 noundef %166, ptr noundef %167, i32 noundef %168, i32 noundef %169, i32 noundef %170)
  store ptr %171, ptr %28, align 8
  %172 = load ptr, ptr %28, align 8
  %173 = load i32, ptr @ett_nfs_fh_fn, align 4
  %174 = call ptr @proto_item_add_subtree(ptr noundef %172, i32 noundef %173)
  store ptr %174, ptr %29, align 8
  %175 = load ptr, ptr %29, align 8
  %176 = load i32, ptr @hf_nfs_fh_fn_len, align 4
  %177 = load ptr, ptr %5, align 8
  %178 = load i32, ptr %17, align 4
  %179 = load i32, ptr %18, align 4
  %180 = load i32, ptr %19, align 4
  %181 = call ptr @proto_tree_add_uint(ptr noundef %175, i32 noundef %176, ptr noundef %177, i32 noundef %178, i32 noundef %179, i32 noundef %180)
  %182 = load ptr, ptr %29, align 8
  %183 = load i32, ptr @hf_nfs_fh_fn_inode, align 4
  %184 = load ptr, ptr %5, align 8
  %185 = load i32, ptr %21, align 4
  %186 = load i32, ptr %22, align 4
  %187 = load i32, ptr %23, align 4
  %188 = call ptr @proto_tree_add_uint(ptr noundef %182, i32 noundef %183, ptr noundef %184, i32 noundef %185, i32 noundef %186, i32 noundef %187)
  %189 = load ptr, ptr %29, align 8
  %190 = load i32, ptr @hf_nfs_fh_fn_generation, align 4
  %191 = load ptr, ptr %5, align 8
  %192 = load i32, ptr %24, align 4
  %193 = load i32, ptr %25, align 4
  %194 = load i32, ptr %26, align 4
  %195 = call ptr @proto_tree_add_uint(ptr noundef %189, i32 noundef %190, ptr noundef %191, i32 noundef %192, i32 noundef %193, i32 noundef %194)
  call void @llvm.lifetime.end.p0(i64 8, ptr %29) #16
  call void @llvm.lifetime.end.p0(i64 8, ptr %28) #16
  br label %196

196:                                              ; preds = %164, %109
  %197 = load i32, ptr %16, align 4
  %198 = load i32, ptr %18, align 4
  %199 = add i32 %197, %198
  %200 = load i32, ptr %19, align 4
  %201 = add i32 %199, %200
  store i32 %201, ptr %12, align 4
  call void @llvm.lifetime.end.p0(i64 4, ptr %27) #16
  call void @llvm.lifetime.end.p0(i64 4, ptr %26) #16
  call void @llvm.lifetime.end.p0(i64 4, ptr %25) #16
  call void @llvm.lifetime.end.p0(i64 4, ptr %24) #16
  call void @llvm.lifetime.end.p0(i64 4, ptr %23) #16
  call void @llvm.lifetime.end.p0(i64 4, ptr %22) #16
  call void @llvm.lifetime.end.p0(i64 4, ptr %21) #16
  call void @llvm.lifetime.end.p0(i64 4, ptr %20) #16
  call void @llvm.lifetime.end.p0(i64 4, ptr %19) #16
  call void @llvm.lifetime.end.p0(i64 4, ptr %18) #16
  call void @llvm.lifetime.end.p0(i64 4, ptr %17) #16
  call void @llvm.lifetime.end.p0(i64 4, ptr %16) #16
  call void @llvm.lifetime.start.p0(i64 4, ptr %30) #16
  call void @llvm.lifetime.start.p0(i64 4, ptr %31) #16
  call void @llvm.lifetime.start.p0(i64 4, ptr %32) #16
  call void @llvm.lifetime.start.p0(i64 4, ptr %33) #16
  call void @llvm.lifetime.start.p0(i64 4, ptr %34) #16
  call void @llvm.lifetime.start.p0(i64 4, ptr %35) #16
  call void @llvm.lifetime.start.p0(i64 4, ptr %36) #16
  call void @llvm.lifetime.start.p0(i64 4, ptr %37) #16
  call void @llvm.lifetime.start.p0(i64 4, ptr %38) #16
  call void @llvm.lifetime.start.p0(i64 4, ptr %39) #16
  call void @llvm.lifetime.start.p0(i64 4, ptr %40) #16
  call void @llvm.lifetime.start.p0(i64 4, ptr %41) #16
  %202 = load i32, ptr %12, align 4
  store i32 %202, ptr %30, align 4
  %203 = load i32, ptr %30, align 4
  store i32 %203, ptr %31, align 4
  store i32 2, ptr %32, align 4
  %204 = load ptr, ptr %5, align 8
  %205 = load i32, ptr %31, align 4
  %206 = load i32, ptr %9, align 4
  %207 = call zeroext i16 @tvb_get_uint16(ptr noundef %204, i32 noundef %205, i32 noundef %206)
  %208 = zext i16 %207 to i32
  store i32 %208, ptr %33, align 4
  %209 = load i32, ptr %30, align 4
  %210 = load i32, ptr %32, align 4
  %211 = add i32 %209, %210
  store i32 %211, ptr %34, align 4
  %212 = load i32, ptr %34, align 4
  %213 = add i32 %212, 2
  store i32 %213, ptr %35, align 4
  store i32 4, ptr %36, align 4
  %214 = load ptr, ptr %5, align 8
  %215 = load i32, ptr %35, align 4
  %216 = load i32, ptr %9, align 4
  %217 = call i32 @tvb_get_uint32(ptr noundef %214, i32 noundef %215, i32 noundef %216)
  store i32 %217, ptr %37, align 4
  %218 = load i32, ptr %35, align 4
  %219 = load i32, ptr %36, align 4
  %220 = add i32 %218, %219
  store i32 %220, ptr %38, align 4
  store i32 4, ptr %39, align 4
  %221 = load ptr, ptr %5, align 8
  %222 = load i32, ptr %38, align 4
  %223 = load i32, ptr %9, align 4
  %224 = call i32 @tvb_get_uint32(ptr noundef %221, i32 noundef %222, i32 noundef %223)
  store i32 %224, ptr %40, align 4
  %225 = load i32, ptr %32, align 4
  %226 = load i32, ptr %33, align 4
  %227 = add i32 %225, %226
  store i32 %227, ptr %41, align 4
  %228 = load ptr, ptr %7, align 8
  %229 = icmp ne ptr %228, null
  br i1 %229, label %230, label %262

230:                                              ; preds = %196
  call void @llvm.lifetime.start.p0(i64 8, ptr %42) #16
  store ptr null, ptr %42, align 8
  call void @llvm.lifetime.start.p0(i64 8, ptr %43) #16
  store ptr null, ptr %43, align 8
  %231 = load ptr, ptr %7, align 8
  %232 = load i32, ptr @hf_nfs_fh_xfn, align 4
  %233 = load ptr, ptr %5, align 8
  %234 = load i32, ptr %30, align 4
  %235 = load i32, ptr %41, align 4
  %236 = load i32, ptr %37, align 4
  %237 = call ptr @proto_tree_add_uint(ptr noundef %231, i32 noundef %232, ptr noundef %233, i32 noundef %234, i32 noundef %235, i32 noundef %236)
  store ptr %237, ptr %42, align 8
  %238 = load ptr, ptr %42, align 8
  %239 = load i32, ptr @ett_nfs_fh_xfn, align 4
  %240 = call ptr @proto_item_add_subtree(ptr noundef %238, i32 noundef %239)
  store ptr %240, ptr %43, align 8
  %241 = load ptr, ptr %43, align 8
  %242 = load i32, ptr @hf_nfs_fh_xfn_len, align 4
  %243 = load ptr, ptr %5, align 8
  %244 = load i32, ptr %31, align 4
  %245 = load i32, ptr %32, align 4
  %246 = load i32, ptr %33, align 4
  %247 = call ptr @proto_tree_add_uint(ptr noundef %241, i32 noundef %242, ptr noundef %243, i32 noundef %244, i32 noundef %245, i32 noundef %246)
  %248 = load ptr, ptr %43, align 8
  %249 = load i32, ptr @hf_nfs_fh_xfn_inode, align 4
  %250 = load ptr, ptr %5, align 8
  %251 = load i32, ptr %35, align 4
  %252 = load i32, ptr %36, align 4
  %253 = load i32, ptr %37, align 4
  %254 = call ptr @proto_tree_add_uint(ptr noundef %248, i32 noundef %249, ptr noundef %250, i32 noundef %251, i32 noundef %252, i32 noundef %253)
  %255 = load ptr, ptr %43, align 8
  %256 = load i32, ptr @hf_nfs_fh_xfn_generation, align 4
  %257 = load ptr, ptr %5, align 8
  %258 = load i32, ptr %38, align 4
  %259 = load i32, ptr %39, align 4
  %260 = load i32, ptr %40, align 4
  %261 = call ptr @proto_tree_add_uint(ptr noundef %255, i32 noundef %256, ptr noundef %257, i32 noundef %258, i32 noundef %259, i32 noundef %260)
  call void @llvm.lifetime.end.p0(i64 8, ptr %43) #16
  call void @llvm.lifetime.end.p0(i64 8, ptr %42) #16
  br label %262

262:                                              ; preds = %230, %196
  %263 = load i32, ptr %30, align 4
  %264 = load i32, ptr %32, align 4
  %265 = add i32 %263, %264
  %266 = load i32, ptr %33, align 4
  %267 = add i32 %265, %266
  store i32 %267, ptr %12, align 4
  call void @llvm.lifetime.end.p0(i64 4, ptr %41) #16
  call void @llvm.lifetime.end.p0(i64 4, ptr %40) #16
  call void @llvm.lifetime.end.p0(i64 4, ptr %39) #16
  call void @llvm.lifetime.end.p0(i64 4, ptr %38) #16
  call void @llvm.lifetime.end.p0(i64 4, ptr %37) #16
  call void @llvm.lifetime.end.p0(i64 4, ptr %36) #16
  call void @llvm.lifetime.end.p0(i64 4, ptr %35) #16
  call void @llvm.lifetime.end.p0(i64 4, ptr %34) #16
  call void @llvm.lifetime.end.p0(i64 4, ptr %33) #16
  call void @llvm.lifetime.end.p0(i64 4, ptr %32) #16
  call void @llvm.lifetime.end.p0(i64 4, ptr %31) #16
  call void @llvm.lifetime.end.p0(i64 4, ptr %30) #16
  %268 = load i8, ptr %10, align 1, !range !6, !noundef !7
  %269 = trunc i8 %268 to i1
  br i1 %269, label %270, label %277

270:                                              ; preds = %262
  %271 = load ptr, ptr %7, align 8
  %272 = load i32, ptr @hf_nfs_fh_flag, align 4
  %273 = load ptr, ptr %5, align 8
  %274 = load i32, ptr %12, align 4
  %275 = load i32, ptr %9, align 4
  %276 = call ptr @proto_tree_add_item(ptr noundef %271, i32 noundef %272, ptr noundef %273, i32 noundef %274, i32 noundef 4, i32 noundef %275)
  br label %277

277:                                              ; preds = %270, %262
  %278 = load ptr, ptr %5, align 8
  %279 = call i32 @tvb_captured_length(ptr noundef %278)
  call void @llvm.lifetime.end.p0(i64 4, ptr %15) #16
  call void @llvm.lifetime.end.p0(i64 4, ptr %14) #16
  call void @llvm.lifetime.end.p0(i64 4, ptr %13) #16
  call void @llvm.lifetime.end.p0(i64 4, ptr %12) #16
  call void @llvm.lifetime.end.p0(i64 1, ptr %11) #16
  call void @llvm.lifetime.end.p0(i64 1, ptr %10) #16
  call void @llvm.lifetime.end.p0(i64 4, ptr %9) #16
  ret i32 %279
}