; Function Attrs: null_pointer_is_valid sspstrong uwtable
define internal i32 @dissect_fhandle_data_SVR4(ptr noundef %0, ptr readnone captures(none) %1, ptr noundef %2, ptr readnone captures(none) %3) #0 {
  %5 = tail call i32 @tvb_reported_length(ptr noundef %0)
  %6 = tail call zeroext i16 @tvb_get_letohs(ptr noundef %0, i32 noundef 8)
  %7 = zext i16 %6 to i32
  %8 = add nuw nsw i32 %7, 10
  %9 = tail call zeroext i1 @tvb_bytes_exist(ptr noundef %0, i32 noundef %8, i32 noundef 2)
  br i1 %9, label %10, label %.thread141

10:                                               ; preds = %4
  %11 = tail call zeroext i16 @tvb_get_letohs(ptr noundef %0, i32 noundef %8)
  %12 = zext i16 %11 to i32
  %13 = add nuw nsw i32 %7, 12
  %14 = add nuw nsw i32 %13, %12
  %15 = icmp eq i32 %14, %5
  %16 = add nuw nsw i32 %7, 16
  %17 = add nuw nsw i32 %16, %12
  %18 = icmp eq i32 %17, %5
  %brmerge = select i1 %18, i1 true, i1 %15
  br i1 %brmerge, label %.thread, label %.thread141

.thread141:                                       ; preds = %10, %4
  %19 = tail call zeroext i16 @tvb_get_ntohs(ptr noundef %0, i32 noundef 8)
  %20 = zext i16 %19 to i32
  %21 = add nuw nsw i32 %20, 10
  %22 = tail call zeroext i1 @tvb_bytes_exist(ptr noundef %0, i32 noundef %21, i32 noundef 2)
  br i1 %22, label %23, label %.thread

23:                                               ; preds = %.thread141
  %24 = tail call zeroext i16 @tvb_get_ntohs(ptr noundef %0, i32 noundef %21)
  %25 = zext i16 %24 to i32
  %26 = add nuw nsw i32 %20, 16
  %27 = add nuw nsw i32 %26, %25
  %28 = icmp eq i32 %27, %5
  br label %.thread

.thread:                                          ; preds = %10, %23, %.thread141
  %.0140 = phi i32 [ 0, %.thread141 ], [ 0, %23 ], [ -2147483648, %10 ]
  %.2.shrunk = phi i1 [ false, %.thread141 ], [ %28, %23 ], [ %18, %10 ]
  %29 = load i32, ptr @hf_nfs_fh_endianness, align 4
  %.0140.lobit = lshr exact i32 %.0140, 31
  %30 = zext nneg i32 %.0140.lobit to i64
  %31 = tail call ptr @proto_tree_add_boolean(ptr noundef %2, i32 noundef %29, ptr noundef %0, i32 noundef 0, i32 noundef %5, i64 noundef %30)
  %32 = load i32, ptr @hf_nfs_fh_fsid, align 4
  %33 = load i32, ptr @ett_nfs_fh_fsid, align 4
  %34 = tail call ptr @proto_tree_add_bitmask(ptr noundef %2, ptr noundef %0, i32 noundef 0, i32 noundef %32, i32 noundef %33, ptr noundef nonnull @dissect_fhandle_data_SVR4.fsid_fields, i32 noundef %.0140)
  %35 = load i32, ptr @hf_nfs_fh_fstype, align 4
  %36 = tail call ptr @proto_tree_add_item(ptr noundef %2, i32 noundef %35, ptr noundef %0, i32 noundef 4, i32 noundef 4, i32 noundef %.0140)
  %37 = tail call zeroext i16 @tvb_get_uint16(ptr noundef %0, i32 noundef 8, i32 noundef %.0140)
  %38 = zext i16 %37 to i32
  %39 = tail call i32 @tvb_get_uint32(ptr noundef %0, i32 noundef 12, i32 noundef %.0140)
  %40 = tail call i32 @tvb_get_uint32(ptr noundef %0, i32 noundef 16, i32 noundef %.0140)
  %.not = icmp eq ptr %2, null
  br i1 %.not, label %53, label %41

41:                                               ; preds = %.thread
  %42 = add nuw nsw i32 %38, 2
  %43 = load i32, ptr @hf_nfs_fh_fn, align 4
  %44 = tail call ptr @proto_tree_add_uint(ptr noundef nonnull %2, i32 noundef %43, ptr noundef %0, i32 noundef 8, i32 noundef %42, i32 noundef %39)
  %45 = load i32, ptr @ett_nfs_fh_fn, align 4
  %46 = tail call ptr @proto_item_add_subtree(ptr noundef %44, i32 noundef %45)
  %47 = load i32, ptr @hf_nfs_fh_fn_len, align 4
  %48 = tail call ptr @proto_tree_add_uint(ptr noundef %46, i32 noundef %47, ptr noundef %0, i32 noundef 8, i32 noundef 2, i32 noundef %38)
  %49 = load i32, ptr @hf_nfs_fh_fn_inode, align 4
  %50 = tail call ptr @proto_tree_add_uint(ptr noundef %46, i32 noundef %49, ptr noundef %0, i32 noundef 12, i32 noundef 4, i32 noundef %39)
  %51 = load i32, ptr @hf_nfs_fh_fn_generation, align 4
  %52 = tail call ptr @proto_tree_add_uint(ptr noundef %46, i32 noundef %51, ptr noundef %0, i32 noundef 16, i32 noundef 4, i32 noundef %40)
  br label %53

53:                                               ; preds = %41, %.thread
  %54 = add nuw nsw i32 %38, 10
  %55 = tail call zeroext i16 @tvb_get_uint16(ptr noundef %0, i32 noundef %54, i32 noundef %.0140)
  %56 = zext i16 %55 to i32
  %57 = add nuw nsw i32 %38, 12
  %58 = add nuw nsw i32 %38, 14
  %59 = tail call i32 @tvb_get_uint32(ptr noundef %0, i32 noundef %58, i32 noundef %.0140)
  %60 = add nuw nsw i32 %38, 18
  %61 = tail call i32 @tvb_get_uint32(ptr noundef %0, i32 noundef %60, i32 noundef %.0140)
  br i1 %.not, label %74, label %62

62:                                               ; preds = %53
  %63 = add nuw nsw i32 %56, 2
  %64 = load i32, ptr @hf_nfs_fh_xfn, align 4
  %65 = tail call ptr @proto_tree_add_uint(ptr noundef nonnull %2, i32 noundef %64, ptr noundef %0, i32 noundef %54, i32 noundef %63, i32 noundef %59)
  %66 = load i32, ptr @ett_nfs_fh_xfn, align 4
  %67 = tail call ptr @proto_item_add_subtree(ptr noundef %65, i32 noundef %66)
  %68 = load i32, ptr @hf_nfs_fh_xfn_len, align 4
  %69 = tail call ptr @proto_tree_add_uint(ptr noundef %67, i32 noundef %68, ptr noundef %0, i32 noundef %54, i32 noundef 2, i32 noundef %56)
  %70 = load i32, ptr @hf_nfs_fh_xfn_inode, align 4
  %71 = tail call ptr @proto_tree_add_uint(ptr noundef %67, i32 noundef %70, ptr noundef %0, i32 noundef %58, i32 noundef 4, i32 noundef %59)
  %72 = load i32, ptr @hf_nfs_fh_xfn_generation, align 4
  %73 = tail call ptr @proto_tree_add_uint(ptr noundef %67, i32 noundef %72, ptr noundef %0, i32 noundef %60, i32 noundef 4, i32 noundef %61)
  br label %74

74:                                               ; preds = %62, %53
  br i1 %.2.shrunk, label %75, label %79

75:                                               ; preds = %74
  %76 = add nuw nsw i32 %57, %56
  %77 = load i32, ptr @hf_nfs_fh_flag, align 4
  %78 = tail call ptr @proto_tree_add_item(ptr noundef %2, i32 noundef %77, ptr noundef %0, i32 noundef %76, i32 noundef 4, i32 noundef %.0140)
  br label %79

79:                                               ; preds = %75, %74
  %80 = tail call i32 @tvb_captured_length(ptr noundef %0)
  ret i32 %80
}